target datalayout = "e-m:e-p270:32:32-p271:32:32-p272:64:64-i64:64-i128:128-f80:128-n8:16:32:64-S128"
target triple = "x86_64-pc-linux-gnu"

@hf_gryphon_ldf_get_frame_num = internal global i32 0, align 4
@hf_gryphon_ldf_get_frame_pub = internal global i32 0, align 4
@hf_gryphon_ldf_get_frame_num_signals = internal global i32 0, align 4
@hf_gryphon_ldf_signal_name = internal global i32 0, align 4

; Function Attrs: null_pointer_is_valid sspstrong uwtable
define internal i32 @resp_ldf_get_frame_info(ptr noundef %0, i32 noundef %1, ptr noundef %2) #0 {
  %4 = alloca ptr, align 8
  %5 = alloca i32, align 4
  %6 = alloca ptr, align 8
  %7 = alloca i32, align 4
  %8 = alloca i8, align 1
  %9 = alloca i8, align 1
  store ptr %0, ptr %4, align 8
  store i32 %1, ptr %5, align 4
  store ptr %2, ptr %6, align 8
  call void @llvm.lifetime.start.p0(i64 4, ptr %7) #7
  call void @llvm.lifetime.start.p0(i64 1, ptr %8) #7
  call void @llvm.lifetime.start.p0(i64 1, ptr %9) #7
  %10 = load ptr, ptr %6, align 8
  %11 = load i32, ptr @hf_gryphon_ldf_get_frame_num, align 4
  %12 = load ptr, ptr %4, align 8
  %13 = load i32, ptr %5, align 4
  %14 = call ptr @proto_tree_add_item(ptr noundef %10, i32 noundef %11, ptr noundef %12, i32 noundef %13, i32 noundef 1, i32 noundef 0)
  %15 = load i32, ptr %5, align 4
  %16 = add i32 %15, 1
  store i32 %16, ptr %5, align 4
  %17 = load ptr, ptr %6, align 8
  %18 = load i32, ptr @hf_gryphon_ldf_get_frame_pub, align 4
  %19 = load ptr, ptr %4, align 8
  %20 = load i32, ptr %5, align 4
  %21 = call ptr @proto_tree_add_item_ret_length(ptr noundef %17, i32 noundef %18, ptr noundef %19, i32 noundef %20, i32 noundef -1, i32 noundef 0, ptr noundef %7)
  %22 = load i32, ptr %7, align 4
  %23 = load i32, ptr %5, align 4
  %24 = add i32 %23, %22
  store i32 %24, ptr %5, align 4
  %25 = load ptr, ptr %4, align 8
  %26 = load i32, ptr %5, align 4
  %27 = call zeroext i8 @tvb_get_uint8(ptr noundef %25, i32 noundef %26)
  store i8 %27, ptr %8, align 1
  %28 = load ptr, ptr %6, align 8
  %29 = load i32, ptr @hf_gryphon_ldf_get_frame_num_signals, align 4
  %30 = load ptr, ptr %4, align 8
  %31 = load i32, ptr %5, align 4
  %32 = call ptr @proto_tree_add_item(ptr noundef %28, i32 noundef %29, ptr noundef %30, i32 noundef %31, i32 noundef 1, i32 noundef 0)
  %33 = load i32, ptr %5, align 4
  %34 = add i32 %33, 1
  store i32 %34, ptr %5, align 4
  store i8 0, ptr %9, align 1
  br label %35

35:                                               ; preds = %50, %3
  %36 = load i8, ptr %9, align 1
  %37 = zext i8 %36 to i32
  %38 = load i8, ptr %8, align 1
  %39 = zext i8 %38 to i32
  %40 = icmp slt i32 %37, %39
  br i1 %40, label %41, label %53

41:                                               ; preds = %35
  %42 = load ptr, ptr %6, align 8
  %43 = load i32, ptr @hf_gryphon_ldf_signal_name, align 4
  %44 = load ptr, ptr %4, align 8
  %45 = load i32, ptr %5, align 4
  %46 = call ptr @proto_tree_add_item_ret_length(ptr noundef %42, i32 noundef %43, ptr noundef %44, i32 noundef %45, i32 noundef -1, i32 noundef 0, ptr noundef %7)
  %47 = load i32, ptr %7, align 4
  %48 = load i32, ptr %5, align 4
  %49 = add i32 %48, %47
  store i32 %49, ptr %5, align 4
  br label %50

50:                                               ; preds = %41
  %51 = load i8, ptr %9, align 1
  %52 = add i8 %51, 1
  store i8 %52, ptr %9, align 1
  br label %35, !llvm.loop !36

53:                                               ; preds = %35
  %54 = load i32, ptr %5, align 4
  call void @llvm.lifetime.end.p0(i64 1, ptr %9) #7
  call void @llvm.lifetime.end.p0(i64 1, ptr %8) #7
  call void @llvm.lifetime.end.p0(i64 4, ptr %7) #7
  ret i32 %54
}