; Function Attrs: null_pointer_is_valid sspstrong uwtable
define internal fastcc i32 @resp_ldf_get_frame_info(ptr noundef %0, ptr noundef %1) unnamed_addr #0 {
  %3 = alloca i32, align 4
  call void @llvm.lifetime.start.p0(i64 4, ptr nonnull %3) #5
  %4 = load i32, ptr @hf_gryphon_ldf_get_frame_num, align 4
  %5 = tail call ptr @proto_tree_add_item(ptr noundef %1, i32 noundef %4, ptr noundef %0, i32 noundef 16, i32 noundef 1, i32 noundef 0)
  %6 = load i32, ptr @hf_gryphon_ldf_get_frame_pub, align 4
  %7 = call ptr @proto_tree_add_item_ret_length(ptr noundef %1, i32 noundef %6, ptr noundef %0, i32 noundef 17, i32 noundef -1, i32 noundef 0, ptr noundef nonnull %3)
  %8 = load i32, ptr %3, align 4
  %9 = add i32 %8, 17
  %10 = call zeroext i8 @tvb_get_uint8(ptr noundef %0, i32 noundef %9)
  %11 = load i32, ptr @hf_gryphon_ldf_get_frame_num_signals, align 4
  %12 = call ptr @proto_tree_add_item(ptr noundef %1, i32 noundef %11, ptr noundef %0, i32 noundef %9, i32 noundef 1, i32 noundef 0)
  %13 = add i32 %8, 18
  %.not = icmp eq i8 %10, 0
  br i1 %.not, label %._crit_edge, label %.lr.ph

.lr.ph:                                           ; preds = %2, %.lr.ph
  %.023 = phi i8 [ %18, %.lr.ph ], [ 0, %2 ]
  %.02122 = phi i32 [ %17, %.lr.ph ], [ %13, %2 ]
  %14 = load i32, ptr @hf_gryphon_ldf_signal_name, align 4
  %15 = call ptr @proto_tree_add_item_ret_length(ptr noundef %1, i32 noundef %14, ptr noundef %0, i32 noundef %.02122, i32 noundef -1, i32 noundef 0, ptr noundef nonnull %3)
  %16 = load i32, ptr %3, align 4
  %17 = add i32 %16, %.02122
  %18 = add nuw i8 %.023, 1
  %exitcond.not = icmp eq i8 %18, %10
  br i1 %exitcond.not, label %._crit_edge, label %.lr.ph, !llvm.loop !36

._crit_edge:                                      ; preds = %.lr.ph, %2
  %.021.lcssa = phi i32 [ %13, %2 ], [ %17, %.lr.ph ]
  call void @llvm.lifetime.end.p0(i64 4, ptr nonnull %3) #5
  ret i32 %.021.lcssa
}